target datalayout = "e-m:e-p270:32:32-p271:32:32-p272:64:64-i64:64-i128:128-f80:128-n8:16:32:64-S128"
target triple = "x86_64-pc-linux-gnu"

%struct.ma_slot_allocator = type { ptr, ptr, i32, i32, i32, ptr }
%struct.ma_slot_allocator_group = type { i32 }

; Function Attrs: alwaysinline nounwind uwtable
define internal i32 @ma_slot_allocator_calculate_group_capacity(i32 noundef %0) #7 {
  %2 = alloca i32, align 4
  %3 = alloca i32, align 4
  store i32 %0, ptr %2, align 4
  call void @llvm.lifetime.start.p0(i64 4, ptr %3) #21
  %4 = load i32, ptr %2, align 4
  %5 = udiv i32 %4, 32
  store i32 %5, ptr %3, align 4
  %6 = load i32, ptr %2, align 4
  %7 = urem i32 %6, 32
  %8 = icmp ne i32 %7, 0
  br i1 %8, label %9, label %12

9:                                                ; preds = %1
  %10 = load i32, ptr %3, align 4
  %11 = add i32 %10, 1
  store i32 %11, ptr %3, align 4
  br label %12

12:                                               ; preds = %9, %1
  %13 = load i32, ptr %3, align 4
  call void @llvm.lifetime.end.p0(i64 4, ptr %3) #21
  ret i32 %13
}

; Function Attrs: alwaysinline nounwind uwtable
define internal void @ma_yield() #7 {
  call void asm sideeffect "pause", "~{dirflag},~{fpsr},~{flags}"() #21, !srcloc !5
  ret void
}

; Function Attrs: alwaysinline nounwind uwtable
define internal i32 @ma_atomic_compare_and_swap_32(ptr noundef %0, i32 noundef %1, i32 noundef %2) #7 {
  %4 = alloca ptr, align 8
  %5 = alloca i32, align 4
  %6 = alloca i32, align 4
  %7 = alloca i32, align 4
  %8 = alloca i8, align 1
  store ptr %0, ptr %4, align 8
  store i32 %1, ptr %5, align 4
  store i32 %2, ptr %6, align 4
  %9 = load ptr, ptr %4, align 8
  %10 = load i32, ptr %6, align 4
  store i32 %10, ptr %7, align 4
  %11 = load i32, ptr %5, align 4
  %12 = load i32, ptr %7, align 4
  %13 = cmpxchg volatile ptr %9, i32 %11, i32 %12 seq_cst seq_cst, align 4
  %14 = extractvalue { i32, i1 } %13, 0
  %15 = extractvalue { i32, i1 } %13, 1
  br i1 %15, label %17, label %16

16:                                               ; preds = %3
  store i32 %14, ptr %5, align 4
  br label %17

17:                                               ; preds = %16, %3
  %18 = zext i1 %15 to i8
  store i8 %18, ptr %8, align 1
  %19 = load i32, ptr %5, align 4
  ret i32 %19
}

; Function Attrs: nounwind uwtable
define internal i32 @ma_ffs_32(i32 noundef %0) #0 {
  %2 = alloca i32, align 4
  %3 = alloca i32, align 4
  %4 = alloca i32, align 4
  %5 = alloca i32, align 4
  store i32 %0, ptr %3, align 4
  call void @llvm.lifetime.start.p0(i64 4, ptr %4) #21
  store i32 0, ptr %4, align 4
  br label %6

6:                                                ; preds = %18, %1
  %7 = load i32, ptr %4, align 4
  %8 = icmp ult i32 %7, 32
  br i1 %8, label %9, label %21

9:                                                ; preds = %6
  %10 = load i32, ptr %3, align 4
  %11 = load i32, ptr %4, align 4
  %12 = shl i32 1, %11
  %13 = and i32 %10, %12
  %14 = icmp ne i32 %13, 0
  br i1 %14, label %15, label %17

15:                                               ; preds = %9
  %16 = load i32, ptr %4, align 4
  store i32 %16, ptr %2, align 4
  store i32 1, ptr %5, align 4
  br label %23

17:                                               ; preds = %9
  br label %18

18:                                               ; preds = %17
  %19 = load i32, ptr %4, align 4
  %20 = add i32 %19, 1
  store i32 %20, ptr %4, align 4
  br label %6

21:                                               ; preds = %6
  %22 = load i32, ptr %4, align 4
  store i32 %22, ptr %2, align 4
  store i32 1, ptr %5, align 4
  br label %23

23:                                               ; preds = %21, %15
  call void @llvm.lifetime.end.p0(i64 4, ptr %4) #21
  %24 = load i32, ptr %2, align 4
  ret i32 %24
}

; Function Attrs: alwaysinline nounwind uwtable
define internal i32 @ma_slot_allocator_group_capacity(ptr noundef %0) #7 {
  %2 = alloca ptr, align 8
  store ptr %0, ptr %2, align 8
  %3 = load ptr, ptr %2, align 8
  %4 = getelementptr inbounds nuw %struct.ma_slot_allocator, ptr %3, i32 0, i32 3
  %5 = load i32, ptr %4, align 4
  %6 = call i32 @ma_slot_allocator_calculate_group_capacity(i32 noundef %5)
  ret i32 %6
}

; Function Attrs: nounwind uwtable
define hidden i32 @ma_slot_allocator_alloc(ptr noundef %0, ptr noundef %1) #0 {
  %3 = alloca i32, align 4
  %4 = alloca ptr, align 8
  %5 = alloca ptr, align 8
  %6 = alloca i32, align 4
  %7 = alloca i32, align 4
  %8 = alloca i32, align 4
  %9 = alloca i32, align 4
  %10 = alloca i32, align 4
  %11 = alloca i32, align 4
  %12 = alloca i32, align 4
  %13 = alloca i32, align 4
  %14 = alloca i32, align 4
  %15 = alloca i32, align 4
  %16 = alloca i32, align 4
  store ptr %0, ptr %4, align 8
  store ptr %1, ptr %5, align 8
  call void @llvm.lifetime.start.p0(i64 4, ptr %6) #21
  call void @llvm.lifetime.start.p0(i64 4, ptr %7) #21
  store i32 2, ptr %7, align 4
  %17 = load ptr, ptr %4, align 8
  %18 = icmp eq ptr %17, null
  br i1 %18, label %22, label %19

19:                                               ; preds = %2
  %20 = load ptr, ptr %5, align 8
  %21 = icmp eq ptr %20, null
  br i1 %21, label %22, label %23

22:                                               ; preds = %19, %2
  store i32 -2, ptr %3, align 4
  store i32 1, ptr %8, align 4
  br label %131

23:                                               ; preds = %19
  store i32 0, ptr %6, align 4
  br label %24

24:                                               ; preds = %127, %23
  %25 = load i32, ptr %6, align 4
  %26 = icmp ult i32 %25, 2
  br i1 %26, label %27, label %130

27:                                               ; preds = %24
  call void @llvm.lifetime.start.p0(i64 4, ptr %9) #21
  store i32 0, ptr %9, align 4
  br label %28

28:                                               ; preds = %110, %27
  %29 = load i32, ptr %9, align 4
  %30 = load ptr, ptr %4, align 8
  %31 = call i32 @ma_slot_allocator_group_capacity(ptr noundef %30)
  %32 = icmp ult i32 %29, %31
  br i1 %32, label %33, label %113

33:                                               ; preds = %28
  br label %34

34:                                               ; preds = %108, %33
  call void @llvm.lifetime.start.p0(i64 4, ptr %10) #21
  call void @llvm.lifetime.start.p0(i64 4, ptr %11) #21
  call void @llvm.lifetime.start.p0(i64 4, ptr %12) #21
  %35 = load ptr, ptr %4, align 8
  %36 = getelementptr inbounds nuw %struct.ma_slot_allocator, ptr %35, i32 0, i32 0
  %37 = load ptr, ptr %36, align 8
  %38 = load i32, ptr %9, align 4
  %39 = zext i32 %38 to i64
  %40 = getelementptr inbounds nuw %struct.ma_slot_allocator_group, ptr %37, i64 %39
  %41 = getelementptr inbounds nuw %struct.ma_slot_allocator_group, ptr %40, i32 0, i32 0
  %42 = load atomic i32, ptr %41 seq_cst, align 4
  store i32 %42, ptr %13, align 4
  %43 = load i32, ptr %13, align 4
  store i32 %43, ptr %10, align 4
  %44 = load i32, ptr %10, align 4
  %45 = icmp eq i32 %44, -1
  br i1 %45, label %46, label %47

46:                                               ; preds = %34
  store i32 8, ptr %8, align 4
  br label %106

47:                                               ; preds = %34
  %48 = load i32, ptr %10, align 4
  %49 = xor i32 %48, -1
  %50 = call i32 @ma_ffs_32(i32 noundef %49)
  store i32 %50, ptr %12, align 4
  %51 = load i32, ptr %10, align 4
  %52 = load i32, ptr %12, align 4
  %53 = shl i32 1, %52
  %54 = or i32 %51, %53
  store i32 %54, ptr %11, align 4
  %55 = load ptr, ptr %4, align 8
  %56 = getelementptr inbounds nuw %struct.ma_slot_allocator, ptr %55, i32 0, i32 0
  %57 = load ptr, ptr %56, align 8
  %58 = load i32, ptr %9, align 4
  %59 = zext i32 %58 to i64
  %60 = getelementptr inbounds nuw %struct.ma_slot_allocator_group, ptr %57, i64 %59
  %61 = getelementptr inbounds nuw %struct.ma_slot_allocator_group, ptr %60, i32 0, i32 0
  %62 = load i32, ptr %10, align 4
  %63 = load i32, ptr %11, align 4
  %64 = call i32 @ma_atomic_compare_and_swap_32(ptr noundef %61, i32 noundef %62, i32 noundef %63)
  %65 = load i32, ptr %10, align 4
  %66 = icmp eq i32 %64, %65
  br i1 %66, label %67, label %105

67:                                               ; preds = %47
  call void @llvm.lifetime.start.p0(i64 4, ptr %14) #21
  %68 = load ptr, ptr %4, align 8
  %69 = getelementptr inbounds nuw %struct.ma_slot_allocator, ptr %68, i32 0, i32 2
  store i32 1, ptr %15, align 4
  %70 = load i32, ptr %15, align 4
  %71 = atomicrmw add ptr %69, i32 %70 seq_cst, align 8
  store i32 %71, ptr %16, align 4
  %72 = load i32, ptr %9, align 4
  %73 = shl i32 %72, 5
  %74 = load i32, ptr %12, align 4
  %75 = add i32 %73, %74
  store i32 %75, ptr %14, align 4
  %76 = load i32, ptr %14, align 4
  %77 = load ptr, ptr %4, align 8
  %78 = getelementptr inbounds nuw %struct.ma_slot_allocator, ptr %77, i32 0, i32 3
  %79 = load i32, ptr %78, align 4
  %80 = icmp uge i32 %76, %79
  br i1 %80, label %81, label %82

81:                                               ; preds = %67
  store i32 -4, ptr %3, align 4
  store i32 1, ptr %8, align 4
  br label %104

82:                                               ; preds = %67
  %83 = load ptr, ptr %4, align 8
  %84 = getelementptr inbounds nuw %struct.ma_slot_allocator, ptr %83, i32 0, i32 1
  %85 = load ptr, ptr %84, align 8
  %86 = load i32, ptr %14, align 4
  %87 = zext i32 %86 to i64
  %88 = getelementptr inbounds nuw i32, ptr %85, i64 %87
  %89 = load i32, ptr %88, align 4
  %90 = add i32 %89, 1
  store i32 %90, ptr %88, align 4
  %91 = load ptr, ptr %4, align 8
  %92 = getelementptr inbounds nuw %struct.ma_slot_allocator, ptr %91, i32 0, i32 1
  %93 = load ptr, ptr %92, align 8
  %94 = load i32, ptr %14, align 4
  %95 = zext i32 %94 to i64
  %96 = getelementptr inbounds nuw i32, ptr %93, i64 %95
  %97 = load i32, ptr %96, align 4
  %98 = zext i32 %97 to i64
  %99 = shl i64 %98, 32
  %100 = load i32, ptr %14, align 4
  %101 = zext i32 %100 to i64
  %102 = or i64 %99, %101
  %103 = load ptr, ptr %5, align 8
  store i64 %102, ptr %103, align 8
  store i32 0, ptr %3, align 4
  store i32 1, ptr %8, align 4
  br label %104

104:                                              ; preds = %82, %81
  call void @llvm.lifetime.end.p0(i64 4, ptr %14) #21
  br label %106

105:                                              ; preds = %47
  store i32 0, ptr %8, align 4
  br label %106

106:                                              ; preds = %105, %104, %46
  call void @llvm.lifetime.end.p0(i64 4, ptr %12) #21
  call void @llvm.lifetime.end.p0(i64 4, ptr %11) #21
  call void @llvm.lifetime.end.p0(i64 4, ptr %10) #21
  %107 = load i32, ptr %8, align 4
  switch i32 %107, label %124 [
    i32 0, label %108
    i32 8, label %109
  ]

108:                                              ; preds = %106
  br label %34

109:                                              ; preds = %106
  br label %110

110:                                              ; preds = %109
  %111 = load i32, ptr %9, align 4
  %112 = add i32 %111, 1
  store i32 %112, ptr %9, align 4
  br label %28

113:                                              ; preds = %28
  %114 = load ptr, ptr %4, align 8
  %115 = getelementptr inbounds nuw %struct.ma_slot_allocator, ptr %114, i32 0, i32 2
  %116 = load i32, ptr %115, align 8
  %117 = load ptr, ptr %4, align 8
  %118 = getelementptr inbounds nuw %struct.ma_slot_allocator, ptr %117, i32 0, i32 3
  %119 = load i32, ptr %118, align 4
  %120 = icmp ult i32 %116, %119
  br i1 %120, label %121, label %122

121:                                              ; preds = %113
  call void @ma_yield()
  br label %123

122:                                              ; preds = %113
  store i32 -4, ptr %3, align 4
  store i32 1, ptr %8, align 4
  br label %124

123:                                              ; preds = %121
  store i32 0, ptr %8, align 4
  br label %124

124:                                              ; preds = %123, %122, %106
  call void @llvm.lifetime.end.p0(i64 4, ptr %9) #21
  %125 = load i32, ptr %8, align 4
  switch i32 %125, label %131 [
    i32 0, label %126
  ]

126:                                              ; preds = %124
  br label %127

127:                                              ; preds = %126
  %128 = load i32, ptr %6, align 4
  %129 = add i32 %128, 1
  store i32 %129, ptr %6, align 4
  br label %24

130:                                              ; preds = %24
  store i32 -4, ptr %3, align 4
  store i32 1, ptr %8, align 4
  br label %131

131:                                              ; preds = %130, %124, %22
  call void @llvm.lifetime.end.p0(i64 4, ptr %7) #21
  call void @llvm.lifetime.end.p0(i64 4, ptr %6) #21
  %132 = load i32, ptr %3, align 4
  ret i32 %132
}