; Function Attrs: nounwind uwtable
define hidden range(i32 -4, 1) i32 @ma_slot_allocator_alloc(ptr noundef captures(address_is_null) %0, ptr noundef writeonly captures(address_is_null) %1) local_unnamed_addr #7 {
  %3 = icmp eq ptr %0, null
  %4 = icmp eq ptr %1, null
  %or.cond = or i1 %3, %4
  br i1 %or.cond, label %.thread54, label %.preheader60

.preheader60:                                     ; preds = %2
  %5 = getelementptr inbounds nuw i8, ptr %0, i64 20
  %6 = getelementptr inbounds nuw i8, ptr %0, i64 16
  br label %.preheader59

.preheader59:                                     ; preds = %.preheader60, %56
  %7 = phi i1 [ true, %.preheader60 ], [ false, %56 ]
  %8 = load i32, ptr %5, align 4
  %9 = lshr i32 %8, 5
  %10 = and i32 %8, 31
  %.not.i65 = icmp ne i32 %10, 0
  %11 = zext i1 %.not.i65 to i32
  %12 = or i32 %9, %11
  %.not69 = icmp eq i32 %12, 0
  br i1 %.not69, label %._crit_edge, label %.preheader58

.preheader58:                                     ; preds = %.preheader59, %47
  %indvars.iv = phi i64 [ %indvars.iv.next, %47 ], [ 0, %.preheader59 ]
  br label %13

13:                                               ; preds = %.preheader58, %ma_ffs_32.exit
  %14 = load ptr, ptr %0, align 8
  %15 = getelementptr inbounds nuw %struct.ma_slot_allocator_group, ptr %14, i64 %indvars.iv
  %16 = load atomic i32, ptr %15 seq_cst, align 4
  %17 = icmp eq i32 %16, -1
  br i1 %17, label %47, label %.preheader

.preheader:                                       ; preds = %13, %20
  %.08.i = phi i32 [ %21, %20 ], [ 0, %13 ]
  %18 = shl nuw i32 1, %.08.i
  %19 = and i32 %18, %16
  %.not.i46.not = icmp eq i32 %19, 0
  br i1 %.not.i46.not, label %ma_ffs_32.exit, label %20

20:                                               ; preds = %.preheader
  %21 = add nuw nsw i32 %.08.i, 1
  %exitcond.not.i = icmp eq i32 %21, 32
  br i1 %exitcond.not.i, label %ma_ffs_32.exit, label %.preheader

ma_ffs_32.exit:                                   ; preds = %.preheader, %20
  %.0.lcssa.i = phi i32 [ 32, %20 ], [ %.08.i, %.preheader ]
  %22 = shl nuw i32 1, %.0.lcssa.i
  %23 = or i32 %22, %16
  %24 = load ptr, ptr %0, align 8
  %25 = getelementptr inbounds nuw %struct.ma_slot_allocator_group, ptr %24, i64 %indvars.iv
  %26 = cmpxchg volatile ptr %25, i32 %16, i32 %23 seq_cst seq_cst, align 4
  %27 = extractvalue { i32, i1 } %26, 1
  br i1 %27, label %28, label %13

28:                                               ; preds = %ma_ffs_32.exit
  %29 = trunc nuw nsw i64 %indvars.iv to i32
  %30 = atomicrmw add ptr %6, i32 1 seq_cst, align 8
  %31 = shl i32 %29, 5
  %32 = add i32 %.0.lcssa.i, %31
  %33 = load i32, ptr %5, align 4
  %.not = icmp ult i32 %32, %33
  br i1 %.not, label %34, label %.thread54

34:                                               ; preds = %28
  %35 = getelementptr inbounds nuw i8, ptr %0, i64 8
  %36 = load ptr, ptr %35, align 8
  %37 = zext i32 %32 to i64
  %38 = getelementptr inbounds nuw i32, ptr %36, i64 %37
  %39 = load i32, ptr %38, align 4
  %40 = add i32 %39, 1
  store i32 %40, ptr %38, align 4
  %41 = load ptr, ptr %35, align 8
  %42 = getelementptr inbounds nuw i32, ptr %41, i64 %37
  %43 = load i32, ptr %42, align 4
  %44 = zext i32 %43 to i64
  %45 = shl nuw i64 %44, 32
  %46 = or disjoint i64 %45, %37
  store i64 %46, ptr %1, align 8
  br label %.thread54

47:                                               ; preds = %13
  %indvars.iv.next = add nuw nsw i64 %indvars.iv, 1
  %48 = load i32, ptr %5, align 4
  %49 = lshr i32 %48, 5
  %50 = and i32 %48, 31
  %.not.i = icmp ne i32 %50, 0
  %51 = zext i1 %.not.i to i32
  %spec.select.i45 = add nuw nsw i32 %49, %51
  %52 = zext nneg i32 %spec.select.i45 to i64
  %53 = icmp samesign ult i64 %indvars.iv.next, %52
  br i1 %53, label %.preheader58, label %._crit_edge

._crit_edge:                                      ; preds = %47, %.preheader59
  %.lcssa = phi i32 [ %8, %.preheader59 ], [ %48, %47 ]
  %54 = load i32, ptr %6, align 8
  %55 = icmp ult i32 %54, %.lcssa
  br i1 %55, label %56, label %.thread54

56:                                               ; preds = %._crit_edge
  tail call void asm sideeffect "pause", "~{dirflag},~{fpsr},~{flags}"() #72, !srcloc !3
  br i1 %7, label %.preheader59, label %.thread54

.thread54:                                        ; preds = %._crit_edge, %56, %34, %28, %2
  %.0 = phi i32 [ -2, %2 ], [ -4, %28 ], [ 0, %34 ], [ -4, %56 ], [ -4, %._crit_edge ]
  ret i32 %.0
}